; Function Attrs: nounwind uwtable
define ptr @l_Array_foldlMUnsafe_fold___at_Lean_Server_findModuleRefs___spec__2(ptr noundef readonly captures(none) %0, i64 noundef %1, i64 noundef %2, ptr noundef %3) local_unnamed_addr #0 {
  %.not49 = icmp eq i64 %1, %2
  br i1 %.not49, label %._crit_edge, label %.lr.ph

.lr.ph:                                           ; preds = %4
  %5 = getelementptr inbounds nuw i8, ptr %0, i64 24
  br label %6

6:                                                ; preds = %.lr.ph, %lean_dec.exit
  %.02251 = phi i64 [ %1, %.lr.ph ], [ %17, %lean_dec.exit ]
  %.02450 = phi ptr [ %3, %.lr.ph ], [ %.226, %lean_dec.exit ]
  %7 = getelementptr inbounds nuw [0 x ptr], ptr %5, i64 0, i64 %.02251
  %8 = load ptr, ptr %7, align 8, !tbaa !4
  %9 = ptrtoint ptr %8 to i64
  %10 = and i64 %9, 1
  %.not.i33 = icmp eq i64 %10, 0
  br i1 %.not.i33, label %11, label %lean_array_uget.exit

11:                                               ; preds = %6
  %.val.i.i = load i32, ptr %8, align 4, !tbaa !8
  %12 = icmp sgt i32 %.val.i.i, 0
  br i1 %12, label %13, label %15, !prof !11

13:                                               ; preds = %11
  %14 = add nuw i32 %.val.i.i, 1
  store i32 %14, ptr %8, align 4, !tbaa !8
  br label %lean_array_uget.exit

15:                                               ; preds = %11
  %.not.i.i = icmp eq i32 %.val.i.i, 0
  br i1 %.not.i.i, label %lean_array_uget.exit, label %16

16:                                               ; preds = %15
  tail call void @lean_inc_ref_cold(ptr noundef nonnull %8) #8
  br label %lean_array_uget.exit

lean_array_uget.exit:                             ; preds = %6, %13, %15, %16
  %17 = add i64 %.02251, 1
  %18 = getelementptr inbounds nuw i8, ptr %8, i64 8
  %19 = load ptr, ptr %18, align 8, !tbaa !4
  %20 = ptrtoint ptr %19 to i64
  %21 = and i64 %20, 1
  %.not47 = icmp eq i64 %21, 0
  br i1 %.not47, label %22, label %lean_obj_tag.exit

22:                                               ; preds = %lean_array_uget.exit
  %.val.i = load i32, ptr %19, align 4, !tbaa !8
  %23 = icmp sgt i32 %.val.i, 0
  br i1 %23, label %24, label %26, !prof !11

24:                                               ; preds = %22
  %25 = add nuw i32 %.val.i, 1
  store i32 %25, ptr %19, align 4, !tbaa !8
  br label %lean_obj_tag.exit.thread

26:                                               ; preds = %22
  %.not.i34 = icmp eq i32 %.val.i, 0
  br i1 %.not.i34, label %lean_obj_tag.exit.thread, label %27

27:                                               ; preds = %26
  tail call void @lean_inc_ref_cold(ptr noundef nonnull %19) #8
  br label %lean_obj_tag.exit.thread

lean_obj_tag.exit:                                ; preds = %lean_array_uget.exit
  %28 = and i64 %20, 8589934590
  %29 = icmp eq i64 %28, 0
  br i1 %29, label %lean_dec.exit28, label %lean_dec.exit27

lean_obj_tag.exit.thread:                         ; preds = %24, %26, %27
  %30 = getelementptr i8, ptr %19, i64 4
  %.val.i36 = load i32, ptr %30, align 4
  %31 = icmp ult i32 %.val.i36, 16777216
  %32 = load i32, ptr %19, align 4, !tbaa !8
  %33 = icmp sgt i32 %32, 1
  br i1 %31, label %.thread, label %.thread39

.thread:                                          ; preds = %lean_obj_tag.exit.thread
  br i1 %33, label %34, label %36, !prof !11

34:                                               ; preds = %.thread
  %35 = add nsw i32 %32, -1
  store i32 %35, ptr %19, align 4, !tbaa !8
  br label %lean_dec.exit28

36:                                               ; preds = %.thread
  %.not.i = icmp eq i32 %32, 0
  br i1 %.not.i, label %lean_dec.exit28, label %37

37:                                               ; preds = %36
  tail call void @lean_dec_ref_cold(ptr noundef nonnull %19) #8
  br label %lean_dec.exit28

lean_dec.exit28:                                  ; preds = %lean_obj_tag.exit, %37, %36, %34
  %38 = tail call ptr @lean_array_push(ptr noundef %.02450, ptr noundef nonnull %8) #8
  br label %lean_dec.exit

.thread39:                                        ; preds = %lean_obj_tag.exit.thread
  br i1 %33, label %39, label %41, !prof !11

39:                                               ; preds = %.thread39
  %40 = add nsw i32 %32, -1
  store i32 %40, ptr %19, align 4, !tbaa !8
  br label %lean_dec.exit27

41:                                               ; preds = %.thread39
  %.not.i29 = icmp eq i32 %32, 0
  br i1 %.not.i29, label %lean_dec.exit27, label %42

42:                                               ; preds = %41
  tail call void @lean_dec_ref_cold(ptr noundef nonnull %19) #8
  br label %lean_dec.exit27

lean_dec.exit27:                                  ; preds = %lean_obj_tag.exit, %42, %41, %39
  br i1 %.not.i33, label %43, label %lean_dec.exit

43:                                               ; preds = %lean_dec.exit27
  %44 = load i32, ptr %8, align 4, !tbaa !8
  %45 = icmp sgt i32 %44, 1
  br i1 %45, label %46, label %48, !prof !11

46:                                               ; preds = %43
  %47 = add nsw i32 %44, -1
  store i32 %47, ptr %8, align 4, !tbaa !8
  br label %lean_dec.exit

48:                                               ; preds = %43
  %.not.i31 = icmp eq i32 %44, 0
  br i1 %.not.i31, label %lean_dec.exit, label %49

49:                                               ; preds = %48
  tail call void @lean_dec_ref_cold(ptr noundef nonnull %8) #8
  br label %lean_dec.exit

lean_dec.exit:                                    ; preds = %lean_dec.exit27, %46, %48, %49, %lean_dec.exit28
  %.226 = phi ptr [ %38, %lean_dec.exit28 ], [ %.02450, %49 ], [ %.02450, %48 ], [ %.02450, %46 ], [ %.02450, %lean_dec.exit27 ]
  %.not = icmp eq i64 %17, %2
  br i1 %.not, label %._crit_edge, label %6

._crit_edge:                                      ; preds = %lean_dec.exit, %4
  %.024.lcssa = phi ptr [ %3, %4 ], [ %.226, %lean_dec.exit ]
  ret ptr %.024.lcssa
}